target datalayout = "e-m:e-p270:32:32-p271:32:32-p272:64:64-i64:64-i128:128-f80:128-n8:16:32:64-S128"
target triple = "x86_64-pc-linux-gnu"

%struct.ieee802154_short_addr = type { i16, i16 }

; Function Attrs: nounwind null_pointer_is_valid sspstrong uwtable
define hidden i32 @ieee802154_short_addr_equal(ptr noundef %0, ptr noundef %1) #8 {
  %3 = alloca ptr, align 8
  %4 = alloca ptr, align 8
  store ptr %0, ptr %3, align 8
  store ptr %1, ptr %4, align 8
  %5 = load ptr, ptr %3, align 8
  %6 = getelementptr inbounds nuw %struct.ieee802154_short_addr, ptr %5, i32 0, i32 0
  %7 = load i16, ptr %6, align 2
  %8 = zext i16 %7 to i32
  %9 = load ptr, ptr %4, align 8
  %10 = getelementptr inbounds nuw %struct.ieee802154_short_addr, ptr %9, i32 0, i32 0
  %11 = load i16, ptr %10, align 2
  %12 = zext i16 %11 to i32
  %13 = icmp eq i32 %8, %12
  br i1 %13, label %14, label %24

14:                                               ; preds = %2
  %15 = load ptr, ptr %3, align 8
  %16 = getelementptr inbounds nuw %struct.ieee802154_short_addr, ptr %15, i32 0, i32 1
  %17 = load i16, ptr %16, align 2
  %18 = zext i16 %17 to i32
  %19 = load ptr, ptr %4, align 8
  %20 = getelementptr inbounds nuw %struct.ieee802154_short_addr, ptr %19, i32 0, i32 1
  %21 = load i16, ptr %20, align 2
  %22 = zext i16 %21 to i32
  %23 = icmp eq i32 %18, %22
  br label %24

24:                                               ; preds = %14, %2
  %25 = phi i1 [ false, %2 ], [ %23, %14 ]
  %26 = zext i1 %25 to i32
  ret i32 %26
}