; Function Attrs: mustprogress nofree norecurse nosync nounwind null_pointer_is_valid sspstrong willreturn memory(argmem: read) uwtable
define hidden range(i32 0, 2) i32 @ieee802154_short_addr_equal(ptr noundef readonly captures(none) %0, ptr noundef readonly captures(none) %1) #7 {
  %3 = load i16, ptr %0, align 2
  %4 = load i16, ptr %1, align 2
  %5 = icmp eq i16 %3, %4
  br i1 %5, label %6, label %13

6:                                                ; preds = %2
  %7 = getelementptr inbounds nuw i8, ptr %0, i64 2
  %8 = load i16, ptr %7, align 2
  %9 = getelementptr inbounds nuw i8, ptr %1, i64 2
  %10 = load i16, ptr %9, align 2
  %11 = icmp eq i16 %8, %10
  %12 = zext i1 %11 to i32
  br label %13

13:                                               ; preds = %6, %2
  %14 = phi i32 [ 0, %2 ], [ %12, %6 ]
  ret i32 %14
}